LIBRARY opencpn.exe 
EXPORTS 
    ??0DateTimeFormatOptions@@QAE@ABU0@@Z 
    ??0DateTimeFormatOptions@@QAE@XZ 
    ??0OCPN_downloadEvent@@QAE@ABV0@@Z 
    ??0OCPN_downloadEvent@@QAE@HH@Z 
    ??0ObservableListener@@QAE@$$QAV0@@Z 
    ??0ObservableListener@@QAE@ABV?$basic_string@DU?$char_traits@D@std@@V?$allocator@D@2@@std@@PAVwxEvtHandler@@H@Z 
    ??0ObservableListener@@QAE@ABVKeyProvider@@PAVwxEvtHandler@@H@Z 
    ??0ObservableListener@@QAE@XZ 
    ??0PlugInChartBase@@QAE@ABV0@@Z 
    ??0PlugInChartBase@@QAE@XZ 
    ??0PlugInChartBaseExtended@@QAE@ABV0@@Z 
    ??0PlugInChartBaseExtended@@QAE@XZ 
    ??0PlugInChartBaseExtendedPlus2@@QAE@ABV0@@Z 
    ??0PlugInChartBaseExtendedPlus2@@QAE@XZ 
    ??0PlugInChartBaseGL@@QAE@ABV0@@Z 
    ??0PlugInChartBaseGL@@QAE@XZ 
    ??0PlugInChartBaseGLPlus2@@QAE@ABV0@@Z 
    ??0PlugInChartBaseGLPlus2@@QAE@XZ 
    ??0PlugIn_Route@@QAE@ABV0@@Z 
    ??0PlugIn_Route@@QAE@XZ 
    ??0PlugIn_Route_Ex@@QAE@ABV0@@Z 
    ??0PlugIn_Route_Ex@@QAE@XZ 
    ??0PlugIn_Route_ExV2@@QAE@ABV0@@Z 
    ??0PlugIn_Route_ExV2@@QAE@XZ 
    ??0PlugIn_Track@@QAE@ABV0@@Z 
    ??0PlugIn_Track@@QAE@XZ 
    ??0PlugIn_Waypoint@@QAE@ABV0@@Z 
    ??0PlugIn_Waypoint@@QAE@NNABVwxString@@00@Z 
    ??0PlugIn_Waypoint@@QAE@XZ 
    ??0PlugIn_Waypoint_Ex@@QAE@ABV0@@Z 
    ??0PlugIn_Waypoint_Ex@@QAE@NNABVwxString@@00N_NHNVwxColour@@@Z 
    ??0PlugIn_Waypoint_Ex@@QAE@XZ 
    ??0PlugIn_Waypoint_ExV2@@QAE@ABV0@@Z 
    ??0PlugIn_Waypoint_ExV2@@QAE@NNABVwxString@@00NN_NHNHVwxColour@@N1NV1@@Z 
    ??0PlugIn_Waypoint_ExV2@@QAE@XZ 
    ??0Plugin_Hyperlink@@QAE@$$QAV0@@Z 
    ??0Plugin_Hyperlink@@QAE@ABV0@@Z 
    ??0Plugin_Hyperlink@@QAE@XZ 
    ??0opencpn_plugin@@QAE@ABV0@@Z 
    ??0opencpn_plugin@@QAE@PAX@Z 
    ??0opencpn_plugin_110@@QAE@ABV0@@Z 
    ??0opencpn_plugin_110@@QAE@PAX@Z 
    ??0opencpn_plugin_111@@QAE@ABV0@@Z 
    ??0opencpn_plugin_111@@QAE@PAX@Z 
    ??0opencpn_plugin_112@@QAE@ABV0@@Z 
    ??0opencpn_plugin_112@@QAE@PAX@Z 
    ??0opencpn_plugin_113@@QAE@ABV0@@Z 
    ??0opencpn_plugin_113@@QAE@PAX@Z 
    ??0opencpn_plugin_114@@QAE@ABV0@@Z 
    ??0opencpn_plugin_114@@QAE@PAX@Z 
    ??0opencpn_plugin_115@@QAE@ABV0@@Z 
    ??0opencpn_plugin_115@@QAE@PAX@Z 
    ??0opencpn_plugin_116@@QAE@ABV0@@Z 
    ??0opencpn_plugin_116@@QAE@PAX@Z 
    ??0opencpn_plugin_117@@QAE@$$QAV0@@Z 
    ??0opencpn_plugin_117@@QAE@ABV0@@Z 
    ??0opencpn_plugin_117@@QAE@PAX@Z 
    ??0opencpn_plugin_118@@QAE@$$QAV0@@Z 
    ??0opencpn_plugin_118@@QAE@ABV0@@Z 
    ??0opencpn_plugin_118@@QAE@PAX@Z 
    ??0opencpn_plugin_119@@QAE@$$QAV0@@Z 
    ??0opencpn_plugin_119@@QAE@ABV0@@Z 
    ??0opencpn_plugin_119@@QAE@PAX@Z 
    ??0opencpn_plugin_120@@QAE@$$QAV0@@Z 
    ??0opencpn_plugin_120@@QAE@ABV0@@Z 
    ??0opencpn_plugin_120@@QAE@PAX@Z 
    ??0opencpn_plugin_16@@QAE@ABV0@@Z 
    ??0opencpn_plugin_16@@QAE@PAX@Z 
    ??0opencpn_plugin_17@@QAE@ABV0@@Z 
    ??0opencpn_plugin_17@@QAE@PAX@Z 
    ??0opencpn_plugin_18@@QAE@ABV0@@Z 
    ??0opencpn_plugin_18@@QAE@PAX@Z 
    ??0opencpn_plugin_19@@QAE@ABV0@@Z 
    ??0opencpn_plugin_19@@QAE@PAX@Z 
    ??1DateTimeFormatOptions@@UAE@XZ 
    ??1OCPN_downloadEvent@@UAE@XZ 
    ??1ObservableListener@@QAE@XZ 
    ??1PlugInChartBase@@UAE@XZ 
    ??1PlugInChartBaseExtended@@UAE@XZ 
    ??1PlugInChartBaseExtendedPlus2@@UAE@XZ 
    ??1PlugInChartBaseGL@@UAE@XZ 
    ??1PlugInChartBaseGLPlus2@@UAE@XZ 
    ??1PlugIn_Route@@QAE@XZ 
    ??1PlugIn_Route_Ex@@QAE@XZ 
    ??1PlugIn_Route_ExV2@@UAE@XZ 
    ??1PlugIn_Track@@QAE@XZ 
    ??1PlugIn_Waypoint@@QAE@XZ 
    ??1PlugIn_Waypoint_Ex@@QAE@XZ 
    ??1PlugIn_Waypoint_ExV2@@UAE@XZ 
    ??1Plugin_Hyperlink@@QAE@XZ 
    ??1opencpn_plugin@@UAE@XZ 
    ??1opencpn_plugin_110@@UAE@XZ 
    ??1opencpn_plugin_111@@UAE@XZ 
    ??1opencpn_plugin_112@@UAE@XZ 
    ??1opencpn_plugin_113@@UAE@XZ 
    ??1opencpn_plugin_114@@UAE@XZ 
    ??1opencpn_plugin_115@@UAE@XZ 
    ??1opencpn_plugin_116@@UAE@XZ 
    ??1opencpn_plugin_117@@UAE@XZ 
    ??1opencpn_plugin_118@@UAE@XZ 
    ??1opencpn_plugin_119@@UAE@XZ 
    ??1opencpn_plugin_120@@UAE@XZ 
    ??1opencpn_plugin_16@@UAE@XZ 
    ??1opencpn_plugin_17@@UAE@XZ 
    ??1opencpn_plugin_18@@UAE@XZ 
    ??1opencpn_plugin_19@@UAE@XZ 
    ??4DateTimeFormatOptions@@QAEAAU0@ABU0@@Z 
    ??4OCPN_downloadEvent@@QAEAAV0@ABV0@@Z 
    ??4ObservableListener@@QAEAAV0@$$QAV0@@Z 
    ??4PI_S57Obj@@QAEAAV0@$$QAV0@@Z 
    ??4PI_S57Obj@@QAEAAV0@ABV0@@Z 
    ??4PlugInChartBase@@QAEAAV0@ABV0@@Z 
    ??4PlugInChartBaseExtended@@QAEAAV0@ABV0@@Z 
    ??4PlugInChartBaseExtendedPlus2@@QAEAAV0@ABV0@@Z 
    ??4PlugInChartBaseGL@@QAEAAV0@ABV0@@Z 
    ??4PlugInChartBaseGLPlus2@@QAEAAV0@ABV0@@Z 
    ??4PlugIn_Route@@QAEAAV0@ABV0@@Z 
    ??4PlugIn_Route_Ex@@QAEAAV0@ABV0@@Z 
    ??4PlugIn_Route_ExV2@@QAEAAV0@ABV0@@Z 
    ??4PlugIn_Track@@QAEAAV0@ABV0@@Z 
    ??4PlugIn_Waypoint@@QAEAAV0@ABV0@@Z 
    ??4PlugIn_Waypoint_Ex@@QAEAAV0@ABV0@@Z 
    ??4PlugIn_Waypoint_ExV2@@QAEAAV0@ABV0@@Z 
    ??4Plugin_Hyperlink@@QAEAAV0@$$QAV0@@Z 
    ??4Plugin_Hyperlink@@QAEAAV0@ABV0@@Z 
    ??4opencpn_plugin@@QAEAAV0@ABV0@@Z 
    ??4opencpn_plugin_110@@QAEAAV0@ABV0@@Z 
    ??4opencpn_plugin_111@@QAEAAV0@ABV0@@Z 
    ??4opencpn_plugin_112@@QAEAAV0@ABV0@@Z 
    ??4opencpn_plugin_113@@QAEAAV0@ABV0@@Z 
    ??4opencpn_plugin_114@@QAEAAV0@ABV0@@Z 
    ??4opencpn_plugin_115@@QAEAAV0@ABV0@@Z 
    ??4opencpn_plugin_116@@QAEAAV0@ABV0@@Z 
    ??4opencpn_plugin_117@@QAEAAV0@$$QAV0@@Z 
    ??4opencpn_plugin_117@@QAEAAV0@ABV0@@Z 
    ??4opencpn_plugin_118@@QAEAAV0@$$QAV0@@Z 
    ??4opencpn_plugin_118@@QAEAAV0@ABV0@@Z 
    ??4opencpn_plugin_119@@QAEAAV0@$$QAV0@@Z 
    ??4opencpn_plugin_119@@QAEAAV0@ABV0@@Z 
    ??4opencpn_plugin_120@@QAEAAV0@$$QAV0@@Z 
    ??4opencpn_plugin_120@@QAEAAV0@ABV0@@Z 
    ??4opencpn_plugin_16@@QAEAAV0@ABV0@@Z 
    ??4opencpn_plugin_17@@QAEAAV0@ABV0@@Z 
    ??4opencpn_plugin_18@@QAEAAV0@ABV0@@Z 
    ??4opencpn_plugin_19@@QAEAAV0@ABV0@@Z 
    ??_7DateTimeFormatOptions@@6B@ 
    ??_7OCPN_downloadEvent@@6B@ 
    ??_7PlugInChartBase@@6B@ 
    ??_7PlugInChartBaseExtended@@6B@ 
    ??_7PlugInChartBaseExtendedPlus2@@6B@ 
    ??_7PlugInChartBaseGL@@6B@ 
    ??_7PlugInChartBaseGLPlus2@@6B@ 
    ??_7PlugIn_Route_ExV2@@6B@ 
    ??_7PlugIn_Waypoint_ExV2@@6B@ 
    ??_7opencpn_plugin@@6B@ 
    ??_7opencpn_plugin_110@@6B@ 
    ??_7opencpn_plugin_111@@6B@ 
    ??_7opencpn_plugin_112@@6B@ 
    ??_7opencpn_plugin_113@@6B@ 
    ??_7opencpn_plugin_114@@6B@ 
    ??_7opencpn_plugin_115@@6B@ 
    ??_7opencpn_plugin_116@@6B@ 
    ??_7opencpn_plugin_117@@6B@ 
    ??_7opencpn_plugin_118@@6B@ 
    ??_7opencpn_plugin_119@@6B@ 
    ??_7opencpn_plugin_120@@6B@ 
    ??_7opencpn_plugin_16@@6B@ 
    ??_7opencpn_plugin_17@@6B@ 
    ??_7opencpn_plugin_18@@6B@ 
    ??_7opencpn_plugin_19@@6B@ 
    ??_FOCPN_downloadEvent@@QAEXXZ 
    ?AcknowledgeNotification@@YA_NABV?$basic_string@DU?$char_traits@D@std@@V?$allocator@D@2@@std@@@Z 
    ?AddChartDirectory@@YAXAAVwxString@@@Z 
    ?AddCustomWaypointIcon@@YA_NPAVwxBitmap@@VwxString@@1@Z 
    ?AddOptionsPage@@YAPAVwxScrolledWindow@@W4OptionsParentPI@@VwxString@@@Z 
    ?AddPersistentFontKey@@YA_NVwxString@@@Z 
    ?AddPlugInRoute@@YA_NPAVPlugIn_Route@@_N@Z 
    ?AddPlugInRouteEx@@YA_NPAVPlugIn_Route_Ex@@_N@Z 
    ?AddPlugInRouteExV2@@YA_NPAVPlugIn_Route_ExV2@@_N@Z 
    ?AddPlugInTrack@@YA_NPAVPlugIn_Track@@_N@Z 
    ?AddSingleWaypoint@@YA_NPAVPlugIn_Waypoint@@_N@Z 
    ?AddSingleWaypointEx@@YA_NPAVPlugIn_Waypoint_Ex@@_N@Z 
    ?AddSingleWaypointExV2@@YA_NPAVPlugIn_Waypoint_ExV2@@_N@Z 
    ?AdjustVP@PlugInChartBase@@UAE_NAAVPlugIn_ViewPort@@0@Z 
    ?CheckEdgePan_PlugIn@@YA_NHH_NHH@Z 
    ?CheckMUIEdgePan_PlugIn@@YA_NHH_NHHH@Z 
    ?ClearPLIBTextList@PlugInChartBaseExtended@@UAEXXZ 
    ?Clone@OCPN_downloadEvent@@UBEPAVwxEvent@@XZ 
    ?ComputeSourceRectangle@PlugInChartBase@@UAEXABVPlugIn_ViewPort@@PAVwxRect@@@Z 
    ?ConfigFlushAndReload@@YAXXZ 
    ?CreateObjDescriptions@PlugInChartBaseExtended@@UAE?AVwxString@@PAVListOfPI_S57Obj@@@Z 
    ?CreateObjDescriptions@PlugInChartBaseGL@@UAE?AVwxString@@PAVListOfPI_S57Obj@@@Z 
    ?DeInit@opencpn_plugin@@UAE_NXZ 
    ?DeleteOptionsPage@@YA_NPAVwxScrolledWindow@@@Z 
    ?DeletePlugInRoute@@YA_NAAVwxString@@@Z 
    ?DeletePlugInTrack@@YA_NAAVwxString@@@Z 
    ?DeleteSingleWaypoint@@YA_NAAVwxString@@@Z 
    ?EnableAisTargetDisplay@@YAX_NH@Z 
    ?EnableBuoyLightLabelsDisplay@@YAX_NH@Z 
    ?EnableCanvasFocusBar@@YAX_NH@Z 
    ?EnableChartBar@@YAX_NH@Z 
    ?EnableChartOutlines@@YAX_NH@Z 
    ?EnableCompassGPSIcon@@YAX_NH@Z 
    ?EnableCurrentStationsDisplay@@YAX_NH@Z 
    ?EnableDepthUnitDisplay@@YAX_NH@Z 
    ?EnableENCDepthSoundingsDisplay@@YAX_NH@Z 
    ?EnableENCTextDisplay@@YAX_NH@Z 
    ?EnableLatLonGrid@@YAX_NH@Z 
    ?EnableLightDescriptionsDisplay@@YAX_NH@Z 
    ?EnableLightsDisplay@@YAX_NH@Z 
    ?EnableLookaheadMode@@YAX_NH@Z 
    ?EnableMUIBar@@YAX_NH@Z 
    ?EnableMenu@@YAX_N@Z 
    ?EnableNotificationCanvasIcon@@YAX_N@Z 
    ?EnableSplitScreenLayout@@YAX_N@Z 
    ?EnableStatusBar@@YAX_N@Z 
    ?EnableTenHertzUpdate@@YAX_N@Z 
    ?EnableTideStationsDisplay@@YAX_NH@Z 
    ?EnableTouchMode@@YAX_N@Z 
    ?ExitOCPN@@YAXXZ 
    ?FindOrCreateFont_PlugIn@@YAPAVwxFont@@HW4wxFontFamily@@W4wxFontStyle@@W4wxFontWeight@@_NABVwxString@@W4wxFontEncoding@@@Z 
    ?ForceChartDBRebuild@@YAXXZ 
    ?ForceChartDBUpdate@@YAXXZ 
    ?GetAPIVersionMajor@opencpn_plugin@@UAEHXZ 
    ?GetAPIVersionMinor@opencpn_plugin@@UAEHXZ 
    ?GetActiveDrivers@@YA?AV?$vector@V?$basic_string@DU?$char_traits@D@std@@V?$allocator@D@2@@std@@V?$allocator@V?$basic_string@DU?$char_traits@D@std@@V?$allocator@D@2@@std@@@2@@std@@XZ 
    ?GetActiveNotificationCount@@YAHXZ 
    ?GetActiveNotifications@@YA?AV?$vector@V?$shared_ptr@VPI_Notification@@@std@@V?$allocator@V?$shared_ptr@VPI_Notification@@@std@@@2@@std@@XZ 
    ?GetActiveOptionsDialog@@YAPAVwxDialog@@XZ 
    ?GetActivePriorityIdentifiers@@YA?AV?$vector@V?$basic_string@DU?$char_traits@D@std@@V?$allocator@D@2@@std@@V?$allocator@V?$basic_string@DU?$char_traits@D@std@@V?$allocator@D@2@@std@@@2@@std@@XZ 
    ?GetActiveRouteGUID@@YA?AVwxString@@XZ 
    ?GetActiveStyleName@@YA?AVwxString@@XZ 
    ?GetActiveWaypointGUID@@YA?AVwxString@@XZ 
    ?GetAppColorScheme@@YA?AW4PI_ColorScheme@@XZ 
    ?GetAttributes@@YA?BV?$unordered_map@V?$basic_string@DU?$char_traits@D@std@@V?$allocator@D@2@@std@@V12@U?$hash@V?$basic_string@DU?$char_traits@D@std@@V?$allocator@D@2@@std@@@2@U?$equal_to@V?$basic_string@DU?$char_traits@D@std@@V?$allocator@D@2@@std@@@2@V?$allocator@U?$pair@$$CBV?$basic_string@DU?$char_traits@D@std@@V?$allocator@D@2@@std@@V12@@std@@@2@@std@@V?$basic_string@DU?$char_traits@D@std@@V?$allocator@D@2@@2@@Z 
    ?GetBaseGlobalColor@@YA?AVwxColour@@VwxString@@@Z 
    ?GetBitmapFromSVGFile@@YA?AVwxBitmap@@VwxString@@II@Z 
    ?GetCOVREntries@PlugInChartBase@@UAEHXZ 
    ?GetCOVRTableHead@PlugInChartBase@@UAEPAMH@Z 
    ?GetCOVRTablePoints@PlugInChartBase@@UAEHH@Z 
    ?GetCOVRTablenPoints@PlugInChartBase@@UAEHH@Z 
    ?GetCanvasByIndex@@YAPAVwxWindow@@H@Z 
    ?GetCanvasCount@@YAHXZ 
    ?GetCanvasIndexUnderMouse@@YAHXZ 
    ?GetCanvasTilt@@YANXZ 
    ?GetCanvasUnderMouse@@YAPAVwxWindow@@XZ 
    ?GetChartBits@PlugInChartBase@@UAE_NAAVwxRect@@PAEH@Z 
    ?GetChartDBDirArrayString@@YA?AVwxArrayString@@XZ 
    ?GetChartDatabaseEntryXML@@YA?AVwxXmlDocument@@H_N@Z 
    ?GetChartErrorFactor@PlugInChartBase@@UAENXZ 
    ?GetChartExtent@PlugInChartBase@@UAE_NPAU_ExtentPI@@@Z 
    ?GetChartFamily@PlugInChartBase@@UAE?AW4ChartFamilyEnumPI@@XZ 
    ?GetChartProjection@PlugInChartBase@@UAE?AW4OcpnProjTypePI@@XZ 
    ?GetChartSkew@PlugInChartBase@@UAENXZ 
    ?GetChartType@PlugInChartBase@@UAE?AW4ChartTypeEnumPI@@XZ 
    ?GetCommonName@opencpn_plugin@@UAE?AVwxString@@XZ 
    ?GetConnState@@YA?AVPI_Comm_Status@@ABV?$basic_string@DU?$char_traits@D@std@@V?$allocator@D@2@@std@@W4PI_Conn_Bus@@@Z 
    ?GetDatumString@PlugInChartBase@@UAE?AVwxString@@XZ 
    ?GetDepthUnitId@PlugInChartBase@@UAE?AW4ChartDepthUnitTypePI@@XZ 
    ?GetDepthUnits@PlugInChartBase@@UAE?AVwxString@@XZ 
    ?GetDescription@PlugInChartBase@@UAE?AVwxString@@XZ 
    ?GetDynamicChartClassNameArray@opencpn_plugin@@UAE?AVwxArrayString@@XZ 
    ?GetENCDisplayCategory@@YA?AW4_PI_DisCat@@H@Z 
    ?GetEditionDate@PlugInChartBase@@UAE?AVwxDateTime@@XZ 
    ?GetEnableAisTargetDisplay@@YA_NH@Z 
    ?GetEnableBuoyLightLabelsDisplay@@YA_NH@Z 
    ?GetEnableCanvasFocusBar@@YA_NH@Z 
    ?GetEnableChartBar@@YA_NH@Z 
    ?GetEnableChartOutlines@@YA_NH@Z 
    ?GetEnableCompassGPSIcon@@YA_NH@Z 
    ?GetEnableCurrentStationsDisplay@@YA_NH@Z 
    ?GetEnableDepthUnitDisplay@@YA_NH@Z 
    ?GetEnableENCDepthSoundingsDisplay@@YA_NH@Z 
    ?GetEnableENCTextDisplay@@YA_NH@Z 
    ?GetEnableLatLonGrid@@YA_NH@Z 
    ?GetEnableLightsDisplay@@YA_NH@Z 
    ?GetEnableLookaheadMode@@YA_NH@Z 
    ?GetEnableMUIBar@@YA_NH@Z 
    ?GetEnableMainToolbar@@YA_NXZ 
    ?GetEnableMenu@@YA_NXZ 
    ?GetEnableStatusBar@@YA_NXZ 
    ?GetEnableTenHertzUpdate@@YA_NXZ 
    ?GetEnableTideStationsDisplay@@YA_NH@Z 
    ?GetEventNavdata@@YA?AUPluginNavdata@@VObservedEvt@@@Z 
    ?GetExtraInfo@PlugInChartBase@@UAE?AVwxString@@XZ 
    ?GetFSStatus@PlugIn_Waypoint_Ex@@QAE_NXZ 
    ?GetFSStatus@PlugIn_Waypoint_ExV2@@QAE_NXZ 
    ?GetFileSearchMask@PlugInChartBase@@UAE?AVwxString@@XZ 
    ?GetFontColour_PlugIn@@YA?AVwxColour@@VwxString@@@Z 
    ?GetFullPath@PlugInChartBase@@UBE?AVwxString@@XZ 
    ?GetFullScreen@@YA_NXZ 
    ?GetGlobalColorD@@YA?AVwxColour@@V?$basic_string@DU?$char_traits@D@std@@V?$allocator@D@2@@std@@0@Z 
    ?GetGlobalWatchdogTimoutSeconds@@YAHXZ 
    ?GetID@PlugInChartBase@@UAE?AVwxString@@XZ 
    ?GetIconNameArray@@YA?AVwxArrayString@@XZ 
    ?GetIcon_PlugIn@@YA?AVwxBitmap@@ABVwxString@@@Z 
    ?GetLatLonFormat@@YAHXZ 
    ?GetLightsObjRuleListVisibleAtLatLon@PlugInChartBaseExtendedPlus2@@UAEPAVListOfPI_S57Obj@@MMPAVPlugIn_ViewPort@@@Z 
    ?GetLightsObjRuleListVisibleAtLatLon@PlugInChartBaseGLPlus2@@UAEPAVListOfPI_S57Obj@@MMPAVPlugIn_ViewPort@@@Z 
    ?GetListener@@YA?AV?$shared_ptr@VObservableListener@@@std@@UNMEA0183Id@@HPAVwxEvtHandler@@@Z 
    ?GetListener@@YA?AV?$shared_ptr@VObservableListener@@@std@@UNMEA2000Id@@HPAVwxEvtHandler@@@Z 
    ?GetListener@@YA?AV?$shared_ptr@VObservableListener@@@std@@UNavDataId@@HPAVwxEvtHandler@@@Z 
    ?GetListener@@YA?AV?$shared_ptr@VObservableListener@@@std@@UNotificationMsgId@@HPAVwxEvtHandler@@@Z 
    ?GetListener@@YA?AV?$shared_ptr@VObservableListener@@@std@@UPluginMsgId@@HPAVwxEvtHandler@@@Z 
    ?GetListener@@YA?AV?$shared_ptr@VObservableListener@@@std@@USignalkId@@HPAVwxEvtHandler@@@Z 
    ?GetLocaleCanonicalName@@YA?AVwxString@@XZ 
    ?GetLongDescription@opencpn_plugin@@UAE?AVwxString@@XZ 
    ?GetMasterToolbarRect@@YA?AVwxRect@@XZ 
    ?GetMaxActiveNotificationLevel@@YA?AW4PI_NotificationSeverity@@XZ 
    ?GetN0183Payload@@YA?AV?$basic_string@DU?$char_traits@D@std@@V?$allocator@D@2@@std@@UNMEA0183Id@@VObservedEvt@@@Z 
    ?GetN2000Payload@@YA?AV?$vector@EV?$allocator@E@std@@@std@@UNMEA2000Id@@VObservedEvt@@@Z 
    ?GetN2000Source@@YA?AV?$basic_string@DU?$char_traits@D@std@@V?$allocator@D@2@@std@@UNMEA2000Id@@VObservedEvt@@@Z 
    ?GetName@PlugInChartBase@@UAE?AVwxString@@XZ 
    ?GetNativeScale@PlugInChartBase@@UAEHXZ 
    ?GetNavigationMode@@YA?AW4_PI_NavMode@@H@Z 
    ?GetNearestPreferredScalePPM@PlugInChartBase@@UAENN@Z 
    ?GetNewGUID@@YA?AVwxString@@XZ 
    ?GetNoCOVREntries@PlugInChartBaseExtended@@UAEHXZ 
    ?GetNoCOVREntries@PlugInChartBaseGL@@UAEHXZ 
    ?GetNoCOVRTableHead@PlugInChartBaseExtended@@UAEPAMH@Z 
    ?GetNoCOVRTableHead@PlugInChartBaseGL@@UAEPAMH@Z 
    ?GetNoCOVRTablePoints@PlugInChartBaseExtended@@UAEHH@Z 
    ?GetNoCOVRTablePoints@PlugInChartBaseGL@@UAEHH@Z 
    ?GetNoCOVRTablenPoints@PlugInChartBaseExtended@@UAEHH@Z 
    ?GetNoCOVRTablenPoints@PlugInChartBaseGL@@UAEHH@Z 
    ?GetNormalScaleMax@PlugInChartBase@@UAENNH@Z 
    ?GetNormalScaleMin@PlugInChartBase@@UAENN_N@Z 
    ?GetNotificationMsgPayload@@YA?AV?$shared_ptr@VPI_Notification@@@std@@UNotificationMsgId@@VObservedEvt@@@Z 
    ?GetOCPNChartScaleFactor_Plugin@@YAMXZ 
    ?GetOCPNGUIScaledFont_PlugIn@@YA?AVwxFont@@VwxString@@@Z 
    ?GetOCPNGUIToolScaleFactor_PlugIn@@YANH@Z 
    ?GetOCPNGUIToolScaleFactor_PlugIn@@YANXZ 
    ?GetOCPNScaledFont_PlugIn@@YAPAVwxFont@@VwxString@@H@Z 
    ?GetOCPN_ExePath@@YA?AVwxString@@XZ 
    ?GetObjRuleListAtLatLon@PlugInChartBaseExtended@@UAEPAVListOfPI_S57Obj@@MMMPAVPlugIn_ViewPort@@@Z 
    ?GetObjRuleListAtLatLon@PlugInChartBaseGL@@UAEPAVListOfPI_S57Obj@@MMMPAVPlugIn_ViewPort@@@Z 
    ?GetPlugInBitmap@opencpn_plugin@@UAEPAVwxBitmap@@XZ 
    ?GetPlugInPath@@YA?AVwxString@@PAVopencpn_plugin@@@Z 
    ?GetPlugInVersionBuild@opencpn_plugin_117@@UAEPBDXZ 
    ?GetPlugInVersionMajor@opencpn_plugin@@UAEHXZ 
    ?GetPlugInVersionMinor@opencpn_plugin@@UAEHXZ 
    ?GetPlugInVersionPatch@opencpn_plugin_117@@UAEHXZ 
    ?GetPlugInVersionPost@opencpn_plugin_117@@UAEHXZ 
    ?GetPlugInVersionPre@opencpn_plugin_117@@UAEPBDXZ 
    ?GetPluginDataDir@@YA?AVwxString@@PBD@Z 
    ?GetPluginMsgPayload@@YA?AV?$basic_string@DU?$char_traits@D@std@@V?$allocator@D@2@@std@@UPluginMsgId@@VObservedEvt@@@Z 
    ?GetPriorityMaps@@YA?AV?$vector@V?$basic_string@DU?$char_traits@D@std@@V?$allocator@D@2@@std@@V?$allocator@V?$basic_string@DU?$char_traits@D@std@@V?$allocator@D@2@@std@@@2@@std@@XZ 
    ?GetPubDate@PlugInChartBase@@UAE?AVwxString@@XZ 
    ?GetRasterScaleFactor@PlugInChartBase@@UAENXZ 
    ?GetRouteExV2_Plugin@@YA?AV?$unique_ptr@VPlugIn_Route_ExV2@@U?$default_delete@VPlugIn_Route_ExV2@@@std@@@std@@ABVwxString@@@Z 
    ?GetRouteEx_Plugin@@YA?AV?$unique_ptr@VPlugIn_Route_Ex@@U?$default_delete@VPlugIn_Route_Ex@@@std@@@std@@ABVwxString@@@Z 
    ?GetRouteGUIDArray@@YA?AVwxArrayString@@W4_OBJECT_LAYER_REQ@@@Z 
    ?GetRouteGUIDArray@@YA?AVwxArrayString@@XZ 
    ?GetRouteMembershipCount@PlugIn_Waypoint_Ex@@QAEHXZ 
    ?GetRouteMembershipCount@PlugIn_Waypoint_ExV2@@QAEHXZ 
    ?GetRoute_Plugin@@YA?AV?$unique_ptr@VPlugIn_Route@@U?$default_delete@VPlugIn_Route@@@std@@@std@@ABVwxString@@@Z 
    ?GetSE@PlugInChartBase@@UAE?AVwxString@@XZ 
    ?GetSelectedRouteGUID_Plugin@@YA?AVwxString@@XZ 
    ?GetSelectedTrackGUID_Plugin@@YA?AVwxString@@XZ 
    ?GetSelectedWaypointGUID_Plugin@@YA?AVwxString@@XZ 
    ?GetShortDescription@opencpn_plugin@@UAE?AVwxString@@XZ 
    ?GetSignalkPayload@@YA?AV?$shared_ptr@X@std@@VObservedEvt@@@Z 
    ?GetSingleWaypoint@@YA_NVwxString@@PAVPlugIn_Waypoint@@@Z 
    ?GetSingleWaypointEx@@YA_NVwxString@@PAVPlugIn_Waypoint_Ex@@@Z 
    ?GetSingleWaypointExV2@@YA_NVwxString@@PAVPlugIn_Waypoint_ExV2@@@Z 
    ?GetSize_X@PlugInChartBase@@UAEHXZ 
    ?GetSize_Y@PlugInChartBase@@UAEHXZ 
    ?GetSoundingsDatum@PlugInChartBase@@UAE?AVwxString@@XZ 
    ?GetThumbnail@PlugInChartBase@@UAEPAVwxBitmap@@HHH@Z 
    ?GetToolbarToolCount@opencpn_plugin@@UAEHXZ 
    ?GetToolboxPanelCount@opencpn_plugin@@UAEHXZ 
    ?GetTouchMode@@YA_NXZ 
    ?GetTrackGUIDArray@@YA?AVwxArrayString@@W4_OBJECT_LAYER_REQ@@@Z 
    ?GetTrackGUIDArray@@YA?AVwxArrayString@@XZ 
    ?GetTrack_Plugin@@YA?AV?$unique_ptr@VPlugIn_Track@@U?$default_delete@VPlugIn_Track@@@std@@@std@@ABVwxString@@@Z 
    ?GetTrackingMode@@YA_NXZ 
    ?GetValidCanvasRegion@PlugInChartBase@@UAEXABVPlugIn_ViewPort@@PAVwxRegion@@@Z 
    ?GetWaypointExV2_Plugin@@YA?AV?$unique_ptr@VPlugIn_Waypoint_ExV2@@U?$default_delete@VPlugIn_Waypoint_ExV2@@@std@@@std@@ABVwxString@@@Z 
    ?GetWaypointEx_Plugin@@YA?AV?$unique_ptr@VPlugIn_Waypoint_Ex@@U?$default_delete@VPlugIn_Waypoint_Ex@@@std@@@std@@ABVwxString@@@Z 
    ?GetWaypointGUIDArray@@YA?AVwxArrayString@@W4_OBJECT_LAYER_REQ@@@Z 
    ?GetWaypointGUIDArray@@YA?AVwxArrayString@@XZ 
    ?GetWaypoint_Plugin@@YA?AV?$unique_ptr@VPlugIn_Waypoint@@U?$default_delete@VPlugIn_Waypoint@@@std@@@std@@ABVwxString@@@Z 
    ?GetWritableDocumentsDir@@YA?AVwxString@@XZ 
    ?Init@PlugInChartBase@@UAEHABVwxString@@H@Z 
    ?Init@opencpn_plugin@@UAEHXZ 
    ?InitDefaults@PlugIn_Waypoint_Ex@@QAEXXZ 
    ?InitDefaults@PlugIn_Waypoint_ExV2@@IAEXXZ 
    ?IsReadyToRender@PlugInChartBase@@UAE_NXZ 
    ?IsTouchInterface_PlugIn@@YA_NXZ 
    ?KeyboardEventHook@opencpn_plugin_113@@UAE_NAAVwxKeyEvent@@@Z 
    ?LateInit@opencpn_plugin_110@@UAEXXZ 
    ?LaunchDefaultBrowser_Plugin@@YA_NVwxString@@@Z 
    ?Listen@ObservableListener@@AAEXXZ 
    ?Listen@ObservableListener@@QAEXABV?$basic_string@DU?$char_traits@D@std@@V?$allocator@D@2@@std@@PAVwxEvtHandler@@H@Z 
    ?Listen@ObservableListener@@QAEXABVKeyProvider@@PAVwxEvtHandler@@H@Z 
    ?MouseEventHook@opencpn_plugin_112@@UAE_NAAVwxMouseEvent@@@Z 
    ?OCPNMessageBox_PlugIn@@YAHPAVwxWindow@@ABVwxString@@1HHH@Z 
    ?OCPN_GetDisplayContentScaleFactor@@YANXZ 
    ?OCPN_GetWinDIPScaleFactor@@YANXZ 
    ?OCPN_cancelDownloadFileBackground@@YAXJ@Z 
    ?OCPN_downloadFile@@YA?AW4_OCPN_DLStatus@@ABVwxString@@000ABVwxBitmap@@PAVwxWindow@@JH@Z 
    ?OCPN_downloadFileBackground@@YA?AW4_OCPN_DLStatus@@ABVwxString@@0PAVwxEvtHandler@@PAJ@Z 
    ?OCPN_isOnline@@YA_NXZ 
    ?OCPN_postDataHttp@@YA?AW4_OCPN_DLStatus@@ABVwxString@@0AAV2@H@Z 
    ?OnCloseToolboxPanel@opencpn_plugin@@UAEXHH@Z 
    ?OnContextMenuItemCallback@opencpn_plugin@@UAEXH@Z 
    ?OnContextMenuItemCallbackExt@opencpn_plugin_120@@UAEXHV?$basic_string@DU?$char_traits@D@std@@V?$allocator@D@2@@std@@0NN@Z 
    ?OnSetupOptions@opencpn_plugin_19@@UAEXXZ 
    ?OnToolbarToolCallback@opencpn_plugin@@UAEXH@Z 
    ?OnToolbarToolDownCallback@opencpn_plugin_113@@UAEXH@Z 
    ?OnToolbarToolUpCallback@opencpn_plugin_113@@UAEXH@Z 
    ?PI_GetObjectDisplayCategory@@YA?AW4_PI_DisCat@@PAVPI_S57Obj@@@Z 
    ?PI_GetObjectDisplayPriority@@YA?AW4_PI_DisPrio@@PAVPI_S57Obj@@@Z 
    ?PI_GetObjectLUPName@@YA?AW4_PI_LUPname@@PAVPI_S57Obj@@@Z 
    ?PI_GetObjectRenderBox@@YA_NPAVPI_S57Obj@@PAN111@Z 
    ?PI_GetPLIBBoundaryStyle@@YAHXZ 
    ?PI_GetPLIBColorScheme@@YA?AVwxString@@XZ 
    ?PI_GetPLIBDepthUnitInt@@YAHXZ 
    ?PI_GetPLIBMarinerSafetyContour@@YANXZ 
    ?PI_GetPLIBStateHash@@YAHXZ 
    ?PI_GetPLIBSymbolStyle@@YAHXZ 
    ?PI_PLIBFreeContext@@YAXPAX@Z 
    ?PI_PLIBObjectRenderCheck@@YA_NPAVPI_S57Obj@@PAVPlugIn_ViewPort@@@Z 
    ?PI_PLIBPrepareForNewRender@@YAXXZ 
    ?PI_PLIBRenderAreaToDC@@YAHPAVwxDC@@PAVPI_S57Obj@@PAVPlugIn_ViewPort@@VwxRect@@PAE@Z 
    ?PI_PLIBRenderAreaToGL@@YAHABVwxGLContext@@PAVPI_S57Obj@@PAVPlugIn_ViewPort@@AAVwxRect@@@Z 
    ?PI_PLIBRenderObjectToDC@@YAHPAVwxDC@@PAVPI_S57Obj@@PAVPlugIn_ViewPort@@@Z 
    ?PI_PLIBRenderObjectToGL@@YAHABVwxGLContext@@PAVPI_S57Obj@@PAVPlugIn_ViewPort@@AAVwxRect@@@Z 
    ?PI_PLIBSetContext@@YA_NPAVPI_S57Obj@@@Z 
    ?PI_PLIBSetLineFeaturePriority@@YAXPAVPI_S57Obj@@H@Z 
    ?PI_PLIBSetRenderCaps@@YAXI@Z 
    ?PI_UpdateContext@@YAXPAVPI_S57Obj@@@Z 
    ?PlatformDirSelectorDialog@@YAHPAVwxWindow@@PAVwxString@@V2@2@Z 
    ?PlatformFileSelectorDialog@@YAHPAVwxWindow@@PAVwxString@@V2@222@Z 
    ?PlugInAISDrawGL@@YAXPAVwxGLCanvas@@ABVPlugIn_ViewPort@@@Z 
    ?PlugInGetDisplaySizeMM@@YANXZ 
    ?PlugInHandleAutopilotRoute@@YAX_N@Z 
    ?PlugInHasNormalizedViewPort@@YA_NPAVPlugIn_ViewPort@@@Z 
    ?PlugInMultMatrixViewport@@YAXPAVPlugIn_ViewPort@@MM@Z 
    ?PlugInNormalizeViewport@@YAXPAVPlugIn_ViewPort@@MM@Z 
    ?PlugInPlaySound@@YAXAAVwxString@@@Z 
    ?PlugInPlaySoundEx@@YA_NAAVwxString@@H@Z 
    ?PlugInSetFontColor@@YA_NVwxString@@VwxColour@@@Z 
    ?PluginCenterOwnship@@YAXH@Z 
    ?PluginGetFocusCanvas@@YAPAVwxWindow@@XZ 
    ?PluginGetFollowMode@@YA_NH@Z 
    ?PluginGetOverlayRenderCanvas@@YAPAVwxWindow@@XZ 
    ?PluginSetFollowMode@@YAXH_N@Z 
    ?PluginZoomCanvas@@YAXHN@Z 
    ?PreShutdownHook@opencpn_plugin_119@@UAEXXZ 
    ?PrepareContextMenu@opencpn_plugin_116@@UAEXH@Z 
    ?ProcessParentResize@opencpn_plugin@@UAEXHH@Z 
    ?RaiseNotification@@YA?AV?$basic_string@DU?$char_traits@D@std@@V?$allocator@D@2@@std@@W4PI_NotificationSeverity@@ABV12@H@Z 
    ?RegisterTXPGNs@@YA?AW4CommDriverResult@@V?$basic_string@DU?$char_traits@D@std@@V?$allocator@D@2@@std@@AAV?$vector@HV?$allocator@H@std@@@3@@Z 
    ?ReloadConfigConnections@@YAXXZ 
    ?RenderGLOverlay@opencpn_plugin_17@@UAE_NPAVwxGLContext@@PAVPlugIn_ViewPort@@@Z 
    ?RenderGLOverlay@opencpn_plugin_18@@UAE_NPAVwxGLContext@@PAVPlugIn_ViewPort@@@Z 
    ?RenderGLOverlayMultiCanvas@opencpn_plugin_116@@UAE_NPAVwxGLContext@@PAVPlugIn_ViewPort@@H@Z 
    ?RenderGLOverlayMultiCanvas@opencpn_plugin_118@@UAE_NPAVwxGLContext@@PAVPlugIn_ViewPort@@HH@Z 
    ?RenderOverlay@opencpn_plugin@@UAE_NPAVwxMemoryDC@@PAVPlugIn_ViewPort@@@Z 
    ?RenderOverlay@opencpn_plugin_16@@UAE_NAAVwxDC@@PAVPlugIn_ViewPort@@@Z 
    ?RenderOverlay@opencpn_plugin_17@@UAE_NAAVwxDC@@PAVPlugIn_ViewPort@@@Z 
    ?RenderOverlay@opencpn_plugin_18@@UAE_NAAVwxDC@@PAVPlugIn_ViewPort@@@Z 
    ?RenderOverlayMultiCanvas@opencpn_plugin_116@@UAE_NAAVwxDC@@PAVPlugIn_ViewPort@@H@Z 
    ?RenderOverlayMultiCanvas@opencpn_plugin_118@@UAE_NAAVwxDC@@PAVPlugIn_ViewPort@@HH@Z 
    ?RenderRegionView@PlugInChartBase@@UAEAAVwxBitmap@@ABVPlugIn_ViewPort@@ABVwxRegion@@@Z 
    ?RenderRegionViewOnDCNoText@PlugInChartBaseExtended@@UAEAAVwxBitmap@@ABVPlugIn_ViewPort@@ABVwxRegion@@@Z 
    ?RenderRegionViewOnDCTextOnly@PlugInChartBaseExtended@@UAE_NAAVwxMemoryDC@@ABVPlugIn_ViewPort@@ABVwxRegion@@@Z 
    ?RenderRegionViewOnGL@PlugInChartBaseExtended@@UAEHABVwxGLContext@@ABVPlugIn_ViewPort@@ABVwxRegion@@_N@Z 
    ?RenderRegionViewOnGL@PlugInChartBaseGL@@UAEHABVwxGLContext@@ABVPlugIn_ViewPort@@ABVwxRegion@@_N@Z 
    ?RenderRegionViewOnGLNoText@PlugInChartBaseExtended@@UAEHABVwxGLContext@@ABVPlugIn_ViewPort@@ABVwxRegion@@_N@Z 
    ?RenderRegionViewOnGLTextOnly@PlugInChartBaseExtended@@UAEHABVwxGLContext@@ABVPlugIn_ViewPort@@ABVwxRegion@@_N@Z 
    ?SendVectorChartObjectInfo@opencpn_plugin_112@@UAEXAAVwxString@@00NNNH@Z 
    ?SetAISSentence@opencpn_plugin@@UAEXAAVwxString@@@Z 
    ?SetActiveLegInfo@opencpn_plugin_117@@UAEXAAVPlugin_Active_Leg_Info@@@Z 
    ?SetAppColorScheme@@YAXW4PI_ColorScheme@@@Z 
    ?SetCanvasProjection@@YAXH@Z 
    ?SetCanvasRotation@@YAXN@Z 
    ?SetCanvasTilt@@YAXN@Z 
    ?SetColorScheme@PlugInChartBase@@UAEXH_N@Z 
    ?SetColorScheme@opencpn_plugin@@UAEXW4PI_ColorScheme@@@Z 
    ?SetCurrentViewPort@opencpn_plugin@@UAEXAAVPlugIn_ViewPort@@@Z 
    ?SetCursorLatLon@opencpn_plugin@@UAEXNN@Z 
    ?SetCursor_PlugIn@@YAXPAVwxCursor@@@Z 
    ?SetDefaults@opencpn_plugin@@UAEXXZ 
    ?SetENCDisplayCategory@@YAXW4_PI_DisCat@@H@Z 
    ?SetEnableMainToolbar@@YAX_N@Z 
    ?SetFormatString@DateTimeFormatOptions@@QAEAAU1@ABVwxString@@@Z 
    ?SetFullScreen@@YAX_N@Z 
    ?SetGlobalColor@@YAXV?$basic_string@DU?$char_traits@D@std@@V?$allocator@D@2@@std@@0VwxColour@@@Z 
    ?SetLongitude@DateTimeFormatOptions@@QAEAAU1@N@Z 
    ?SetMUICursor_PlugIn@@YAXPAVwxCursor@@H@Z 
    ?SetNMEASentence@opencpn_plugin@@UAEXAAVwxString@@@Z 
    ?SetNavigationMode@@YAXW4_PI_NavMode@@H@Z 
    ?SetPluginMessage@opencpn_plugin_16@@UAEXAAVwxString@@0@Z 
    ?SetPluginMessage@opencpn_plugin_17@@UAEXAAVwxString@@0@Z 
    ?SetPluginMessage@opencpn_plugin_18@@UAEXAAVwxString@@0@Z 
    ?SetPositionFix@opencpn_plugin@@UAEXAAVPlugIn_Position_Fix@@@Z 
    ?SetPositionFixEx@opencpn_plugin_18@@UAEXAAVPlugIn_Position_Fix_Ex@@@Z 
    ?SetShowTimezone@DateTimeFormatOptions@@QAEAAU1@_N@Z 
    ?SetTimezone@DateTimeFormatOptions@@QAEAAU1@ABVwxString@@@Z 
    ?SetTrackingMode@@YAX_N@Z 
    ?SetupToolboxPanel@opencpn_plugin@@UAEXHPAVwxNotebook@@@Z 
    ?ShowGlobalSettingsDialog@@YAXXZ 
    ?ShowPreferencesDialog@opencpn_plugin@@UAEXPAVwxWindow@@@Z 
    ?ShuttingDown@@YA_NXZ 
    ?Unlisten@ObservableListener@@AAEXXZ 
    ?UpdateAndApplyPriorityMaps@@YAXV?$vector@V?$basic_string@DU?$char_traits@D@std@@V?$allocator@D@2@@std@@V?$allocator@V?$basic_string@DU?$char_traits@D@std@@V?$allocator@D@2@@std@@@2@@std@@@Z 
    ?UpdateAuiStatus@opencpn_plugin@@UAEXXZ 
    ?UpdateChartDBInplace@@YA_NVwxArrayString@@_N1@Z 
    ?UpdatePlugInRoute@@YA_NPAVPlugIn_Route@@@Z 
    ?UpdatePlugInRouteEx@@YA_NPAVPlugIn_Route_Ex@@@Z 
    ?UpdatePlugInRouteExV2@@YA_NPAVPlugIn_Route_ExV2@@@Z 
    ?UpdatePlugInTrack@@YA_NPAVPlugIn_Track@@@Z 
    ?UpdateSingleWaypoint@@YA_NPAVPlugIn_Waypoint@@@Z 
    ?UpdateSingleWaypointEx@@YA_NPAVPlugIn_Waypoint_Ex@@@Z 
    ?UpdateSingleWaypointExV2@@YA_NPAVPlugIn_Waypoint_ExV2@@@Z 
    ?WriteCommDriver@@YA?AW4CommDriverResult@@V?$basic_string@DU?$char_traits@D@std@@V?$allocator@D@2@@std@@ABV?$shared_ptr@V?$vector@EV?$allocator@E@std@@@std@@@3@@Z 
    ?WriteCommDriverN2K@@YA?AW4CommDriverResult@@V?$basic_string@DU?$char_traits@D@std@@V?$allocator@D@2@@std@@HHHABV?$shared_ptr@V?$vector@EV?$allocator@E@std@@@std@@@3@@Z 
    ?chartpix_to_latlong@PlugInChartBase@@UAEXNNPAN0@Z 
    ?fromDMM_PlugIn@@YANVwxString@@@Z 
    ?fromDMM_Plugin@@YANVwxString@@@Z 
    ?fromUsrDepth_Plugin@@YANNH@Z 
    ?fromUsrWindSpeed_Plugin@@YANNH@Z 
    ?getComplete@OCPN_downloadEvent@@QAE_NXZ 
    ?getDLEventCondition@OCPN_downloadEvent@@QAE?AW4_OCPN_DLCondition@@XZ 
    ?getDLEventStatus@OCPN_downloadEvent@@QAE?AW4_OCPN_DLStatus@@XZ 
    ?getTotal@OCPN_downloadEvent@@QAEJXZ 
    ?getTransferred@OCPN_downloadEvent@@QAEJXZ 
    ?getUsrDepthUnit_Plugin@@YA?AVwxString@@H@Z 
    ?getUsrDistanceUnit_Plugin@@YA?AVwxString@@H@Z 
    ?getUsrSpeedUnit_Plugin@@YA?AVwxString@@H@Z 
    ?getUsrTempUnit_Plugin@@YA?AVwxString@@H@Z 
    ?getUsrWindSpeedUnit_Plugin@@YA?AVwxString@@H@Z 
    ?latlong_to_chartpix@PlugInChartBase@@UAEXNNAAN0@Z 
    ?setComplete@OCPN_downloadEvent@@QAEX_N@Z 
    ?setDLEventCondition@OCPN_downloadEvent@@QAEXW4_OCPN_DLCondition@@@Z 
    ?setDLEventStatus@OCPN_downloadEvent@@QAEXW4_OCPN_DLStatus@@@Z 
    ?setTotal@OCPN_downloadEvent@@QAEXJ@Z 
    ?setTransferred@OCPN_downloadEvent@@QAEXJ@Z 
    ?toSDMM_PlugIn@@YA?AVwxString@@HN_N@Z 
    ?toUsrDateTimeFormat_Plugin@@YA?AVwxString@@VwxDateTime@@ABUDateTimeFormatOptions@@@Z 
    ?toUsrDepth_Plugin@@YANNH@Z 
    ?toUsrWindSpeed_Plugin@@YANNH@Z 
    ?wxEVT_DOWNLOAD_EVENT@@3HA 
    AddCanvasContextMenuItem 
    AddCanvasContextMenuItemExt 
    AddCanvasMenuItem 
    AddChartToDBInPlace 
    AddLocaleCatalog 
    CanvasJumpToPosition 
    DBFAddField 
    DBFAddNativeFieldType 
    DBFAlterFieldDefn 
    DBFCloneEmpty 
    DBFClose 
    DBFCreate 
    DBFCreateEx 
    DBFCreateLL 
    DBFDeleteField 
    DBFGetCodePage 
    DBFGetFieldCount 
    DBFGetFieldIndex 
    DBFGetFieldInfo 
    DBFGetNativeFieldType 
    DBFGetRecordCount 
    DBFIsAttributeNULL 
    DBFIsRecordDeleted 
    DBFMarkRecordDeleted 
    DBFOpen 
    DBFOpenLL 
    DBFReadDateAttribute 
    DBFReadDoubleAttribute 
    DBFReadIntegerAttribute 
    DBFReadLogicalAttribute 
    DBFReadStringAttribute 
    DBFReadTuple 
    DBFReorderFields 
    DBFSetLastModifiedDate 
    DBFSetWriteEndOfFileChar 
    DBFUpdateHeader 
    DBFWriteAttributeDirectly 
    DBFWriteDateAttribute 
    DBFWriteDoubleAttribute 
    DBFWriteIntegerAttribute 
    DBFWriteLogicalAttribute 
    DBFWriteNULLAttribute 
    DBFWriteStringAttribute 
    DBFWriteTuple 
    DecodeSingleVDOMessage 
    DimeWindow 
    DistGreatCircle_Plugin 
    DistanceBearingMercator_Plugin 
    GetAISTargetArray 
    GetActiveRoutepointGPX 
    GetCanvasLLPix 
    GetCanvasPixLL 
    GetChartbarHeight 
    GetDoubleCanvasPixLL 
    GetFrameAuiManager 
    GetGlobalColor 
    GetOCPNCanvasWindow 
    GetOCPNConfigObject 
    GetpPlugInLocation 
    GetpPrivateApplicationDataLocation 
    GetpSharedDataLocation 
    InsertPlugInTool 
    InsertPlugInToolSVG 
    JumpToPosition 
    OCPNGetFont 
    OPENSSL_Applink 
    PlugIn_GSHHS_CrossesLand 
    PositionBearingDistanceMercator_Plugin 
    PushNMEABuffer 
    RemoveCanvasContextMenuItem 
    RemoveCanvasMenuItem 
    RemoveChartFromDBInPlace 
    RemovePlugInTool 
    RequestRefresh 
    RequestWindowRefresh 
    SASetupDefaultHooks 
    SASetupUtf8Hooks 
    SHPClose 
    SHPComputeExtents 
    SHPCreate 
    SHPCreateLL 
    SHPCreateObject 
    SHPCreateSimpleObject 
    SHPDestroyObject 
    SHPGetInfo 
    SHPOpen 
    SHPOpenLL 
    SHPOpenLLEx 
    SHPPartTypeName 
    SHPReadObject 
    SHPRestoreSHX 
    SHPRewindObject 
    SHPSetFastModeReadObject 
    SHPTypeName 
    SHPWriteHeader 
    SHPWriteObject 
    SendPluginMessage 
    SetCanvasContextMenuItemGrey 
    SetCanvasContextMenuItemViz 
    SetCanvasMenuItemGrey 
    SetCanvasMenuItemViz 
    SetToolbarItemState 
    SetToolbarToolBitmaps 
    SetToolbarToolBitmapsSVG 
    SetToolbarToolViz 
    ZeroXTE 
    fromSM_ECC_Plugin 
    fromSM_Plugin 
    fromTM_Plugin 
    fromUsrDistance_Plugin 
    fromUsrSpeed_Plugin 
    fromUsrTemp_Plugin 
    toSM_ECC_Plugin 
    toSM_Plugin 
    toTM_Plugin 
    toUsrDistance_Plugin 
    toUsrSpeed_Plugin 
    toUsrTemp_Plugin 
